; Function Attrs: mustprogress nounwind uwtable
define internal void @_ZN9grpc_core19LoadBalancingPolicy42ParentOwningDelegatingChannelControlHelperINS_12_GLOBAL__N_117XdsOverrideHostLbEED2Ev(ptr noundef nonnull align 8 captures(none) dereferenceable(16) initializes((0, 8)) %0) unnamed_addr #5 align 2 personality ptr @__gxx_personality_v0 {
  store ptr getelementptr inbounds nuw inrange(-16, 104) (i8, ptr @_ZTVN9grpc_core19LoadBalancingPolicy42ParentOwningDelegatingChannelControlHelperINS_12_GLOBAL__N_117XdsOverrideHostLbEEE, i64 16), ptr %0, align 8, !tbaa !6
  %2 = getelementptr inbounds nuw i8, ptr %0, i64 8
  %3 = load ptr, ptr %2, align 8, !tbaa !139
  store ptr null, ptr %2, align 8, !tbaa !139
  %.not.i = icmp eq ptr %3, null
  br i1 %.not.i, label %_ZN9grpc_core13RefCountedPtrINS_19LoadBalancingPolicyEED2Ev.exit, label %4

4:                                                ; preds = %1
  %5 = getelementptr inbounds nuw i8, ptr %3, i64 8
  %6 = atomicrmw sub ptr %5, i64 1 acq_rel, align 8
  %7 = icmp eq i64 %6, 1
  br i1 %7, label %8, label %_ZN9grpc_core13RefCountedPtrINS_19LoadBalancingPolicyEE5resetERKNS_13DebugLocationEPKcPS1_.exit, !prof !47

8:                                                ; preds = %4
  %9 = load ptr, ptr %3, align 8, !tbaa !6
  %10 = getelementptr inbounds nuw i8, ptr %9, i64 16
  %11 = load ptr, ptr %10, align 8
  tail call void %11(ptr noundef nonnull align 8 dereferenceable(56) %3) #40
  br label %_ZN9grpc_core13RefCountedPtrINS_19LoadBalancingPolicyEE5resetERKNS_13DebugLocationEPKcPS1_.exit

_ZN9grpc_core13RefCountedPtrINS_19LoadBalancingPolicyEE5resetERKNS_13DebugLocationEPKcPS1_.exit: ; preds = %8, %4
  %.pr = load ptr, ptr %2, align 8, !tbaa !235
  %.not.i1 = icmp eq ptr %.pr, null
  br i1 %.not.i1, label %_ZN9grpc_core13RefCountedPtrINS_19LoadBalancingPolicyEED2Ev.exit, label %12

12:                                               ; preds = %_ZN9grpc_core13RefCountedPtrINS_19LoadBalancingPolicyEE5resetERKNS_13DebugLocationEPKcPS1_.exit
  %13 = getelementptr inbounds nuw i8, ptr %.pr, i64 8
  %14 = atomicrmw sub ptr %13, i64 1 acq_rel, align 8
  %15 = icmp eq i64 %14, 1
  br i1 %15, label %16, label %_ZN9grpc_core13RefCountedPtrINS_19LoadBalancingPolicyEED2Ev.exit, !prof !47

16:                                               ; preds = %12
  %17 = load ptr, ptr %.pr, align 8, !tbaa !6
  %18 = getelementptr inbounds nuw i8, ptr %17, i64 16
  %19 = load ptr, ptr %18, align 8
  tail call void %19(ptr noundef nonnull align 8 dereferenceable(56) %.pr) #40
  br label %_ZN9grpc_core13RefCountedPtrINS_19LoadBalancingPolicyEED2Ev.exit

_ZN9grpc_core13RefCountedPtrINS_19LoadBalancingPolicyEED2Ev.exit: ; preds = %1, %_ZN9grpc_core13RefCountedPtrINS_19LoadBalancingPolicyEE5resetERKNS_13DebugLocationEPKcPS1_.exit, %12, %16
  ret void
}